target datalayout = "e-m:e-p270:32:32-p271:32:32-p272:64:64-i64:64-i128:128-f80:128-n8:16:32:64-S128"
target triple = "x86_64-pc-linux-gnu"

%class.Register = type { i32 }
%class.XMMRegister = type { i32 }

@UseAVX = external global i32, align 4
@_type2aelembytes = external global [20 x i32], align 16

; Function Attrs: mustprogress nounwind uwtable
define linkonce_odr hidden noundef i32 @_Z15type2aelembytes9BasicTypeb(i8 noundef zeroext %0, i1 noundef zeroext %1) #1 comdat {
  %3 = alloca i8, align 1
  %4 = alloca i8, align 1
  store i8 %0, ptr %3, align 1
  %5 = zext i1 %1 to i8
  store i8 %5, ptr %4, align 1
  %6 = load i8, ptr %3, align 1
  %7 = zext i8 %6 to i64
  %8 = getelementptr inbounds [20 x i32], ptr @_type2aelembytes, i64 0, i64 %7
  %9 = load i32, ptr %8, align 4
  ret i32 %9
}

; Function Attrs: mustprogress nounwind uwtable
define linkonce_odr hidden void @_ZN14MacroAssembler5vpxorE11XMMRegisterS0_S0_i(ptr noundef nonnull align 8 dereferenceable(40) %0, i32 %1, i32 %2, i32 %3, i32 noundef %4) #1 comdat align 2 {
  %6 = alloca %class.XMMRegister, align 4
  %7 = alloca %class.XMMRegister, align 4
  %8 = alloca %class.XMMRegister, align 4
  %9 = alloca ptr, align 8
  %10 = alloca i32, align 4
  %11 = alloca %class.XMMRegister, align 4
  %12 = alloca %class.XMMRegister, align 4
  %13 = alloca %class.XMMRegister, align 4
  %14 = alloca %class.XMMRegister, align 4
  %15 = alloca %class.XMMRegister, align 4
  %16 = alloca %class.XMMRegister, align 4
  %17 = getelementptr inbounds %class.XMMRegister, ptr %6, i32 0, i32 0
  store i32 %1, ptr %17, align 4
  %18 = getelementptr inbounds %class.XMMRegister, ptr %7, i32 0, i32 0
  store i32 %2, ptr %18, align 4
  %19 = getelementptr inbounds %class.XMMRegister, ptr %8, i32 0, i32 0
  store i32 %3, ptr %19, align 4
  store ptr %0, ptr %9, align 8
  store i32 %4, ptr %10, align 4
  %20 = load ptr, ptr %9, align 8
  %21 = load i32, ptr @UseAVX, align 4
  %22 = icmp sgt i32 %21, 1
  br i1 %22, label %26, label %23

23:                                               ; preds = %5
  %24 = load i32, ptr %10, align 4
  %25 = icmp slt i32 %24, 1
  br i1 %25, label %26, label %34

26:                                               ; preds = %23, %5
  call void @llvm.memcpy.p0.p0.i64(ptr align 4 %11, ptr align 4 %6, i64 4, i1 false)
  call void @llvm.memcpy.p0.p0.i64(ptr align 4 %12, ptr align 4 %7, i64 4, i1 false)
  call void @llvm.memcpy.p0.p0.i64(ptr align 4 %13, ptr align 4 %8, i64 4, i1 false)
  %27 = load i32, ptr %10, align 4
  %28 = getelementptr inbounds %class.XMMRegister, ptr %11, i32 0, i32 0
  %29 = load i32, ptr %28, align 4
  %30 = getelementptr inbounds %class.XMMRegister, ptr %12, i32 0, i32 0
  %31 = load i32, ptr %30, align 4
  %32 = getelementptr inbounds %class.XMMRegister, ptr %13, i32 0, i32 0
  %33 = load i32, ptr %32, align 4
  call void @_ZN9Assembler5vpxorE11XMMRegisterS0_S0_i(ptr noundef nonnull align 8 dereferenceable(40) %20, i32 %29, i32 %31, i32 %33, i32 noundef %27)
  br label %42

34:                                               ; preds = %23
  call void @llvm.memcpy.p0.p0.i64(ptr align 4 %14, ptr align 4 %6, i64 4, i1 false)
  call void @llvm.memcpy.p0.p0.i64(ptr align 4 %15, ptr align 4 %7, i64 4, i1 false)
  call void @llvm.memcpy.p0.p0.i64(ptr align 4 %16, ptr align 4 %8, i64 4, i1 false)
  %35 = load i32, ptr %10, align 4
  %36 = getelementptr inbounds %class.XMMRegister, ptr %14, i32 0, i32 0
  %37 = load i32, ptr %36, align 4
  %38 = getelementptr inbounds %class.XMMRegister, ptr %15, i32 0, i32 0
  %39 = load i32, ptr %38, align 4
  %40 = getelementptr inbounds %class.XMMRegister, ptr %16, i32 0, i32 0
  %41 = load i32, ptr %40, align 4
  call void @_ZN9Assembler6vxorpdE11XMMRegisterS0_S0_i(ptr noundef nonnull align 8 dereferenceable(40) %20, i32 %37, i32 %39, i32 %41, i32 noundef %35)
  br label %42

42:                                               ; preds = %34, %26
  ret void
}

; Function Attrs: mustprogress nounwind uwtable
define hidden void @_ZN17C2_MacroAssembler31vector_count_trailing_zeros_avxE9BasicType11XMMRegisterS1_S1_S1_S1_8Registeri(ptr noundef nonnull align 8 dereferenceable(40) %0, i8 noundef zeroext %1, i32 %2, i32 %3, i32 %4, i32 %5, i32 %6, i32 %7, i32 noundef %8) #1 align 2 {
  %10 = alloca %class.XMMRegister, align 4
  %11 = alloca %class.XMMRegister, align 4
  %12 = alloca %class.XMMRegister, align 4
  %13 = alloca %class.XMMRegister, align 4
  %14 = alloca %class.XMMRegister, align 4
  %15 = alloca %class.Register, align 4
  %16 = alloca ptr, align 8
  %17 = alloca i8, align 1
  %18 = alloca i32, align 4
  %19 = alloca %class.XMMRegister, align 4
  %20 = alloca %class.XMMRegister, align 4
  %21 = alloca %class.XMMRegister, align 4
  %22 = alloca %class.XMMRegister, align 4
  %23 = alloca %class.XMMRegister, align 4
  %24 = alloca %class.XMMRegister, align 4
  %25 = alloca %class.XMMRegister, align 4
  %26 = alloca %class.XMMRegister, align 4
  %27 = alloca %class.XMMRegister, align 4
  %28 = alloca %class.XMMRegister, align 4
  %29 = alloca %class.XMMRegister, align 4
  %30 = alloca %class.XMMRegister, align 4
  %31 = alloca %class.XMMRegister, align 4
  %32 = alloca %class.Register, align 4
  %33 = alloca %class.XMMRegister, align 4
  %34 = alloca %class.Register, align 4
  %35 = alloca %class.XMMRegister, align 4
  %36 = alloca %class.XMMRegister, align 4
  %37 = alloca %class.XMMRegister, align 4
  %38 = getelementptr inbounds %class.XMMRegister, ptr %10, i32 0, i32 0
  store i32 %2, ptr %38, align 4
  %39 = getelementptr inbounds %class.XMMRegister, ptr %11, i32 0, i32 0
  store i32 %3, ptr %39, align 4
  %40 = getelementptr inbounds %class.XMMRegister, ptr %12, i32 0, i32 0
  store i32 %4, ptr %40, align 4
  %41 = getelementptr inbounds %class.XMMRegister, ptr %13, i32 0, i32 0
  store i32 %5, ptr %41, align 4
  %42 = getelementptr inbounds %class.XMMRegister, ptr %14, i32 0, i32 0
  store i32 %6, ptr %42, align 4
  %43 = getelementptr inbounds %class.Register, ptr %15, i32 0, i32 0
  store i32 %7, ptr %43, align 4
  store ptr %0, ptr %16, align 8
  store i8 %1, ptr %17, align 1
  store i32 %8, ptr %18, align 4
  %44 = load ptr, ptr %16, align 8
  call void @llvm.memcpy.p0.p0.i64(ptr align 4 %19, ptr align 4 %14, i64 4, i1 false)
  call void @llvm.memcpy.p0.p0.i64(ptr align 4 %20, ptr align 4 %14, i64 4, i1 false)
  call void @llvm.memcpy.p0.p0.i64(ptr align 4 %21, ptr align 4 %14, i64 4, i1 false)
  %45 = load i32, ptr %18, align 4
  %46 = getelementptr inbounds %class.XMMRegister, ptr %19, i32 0, i32 0
  %47 = load i32, ptr %46, align 4
  %48 = getelementptr inbounds %class.XMMRegister, ptr %20, i32 0, i32 0
  %49 = load i32, ptr %48, align 4
  %50 = getelementptr inbounds %class.XMMRegister, ptr %21, i32 0, i32 0
  %51 = load i32, ptr %50, align 4
  call void @_ZN14MacroAssembler5vpxorE11XMMRegisterS0_S0_i(ptr noundef nonnull align 8 dereferenceable(40) %44, i32 %47, i32 %49, i32 %51, i32 noundef %45)
  %52 = load i8, ptr %17, align 1
  call void @llvm.memcpy.p0.p0.i64(ptr align 4 %22, ptr align 4 %14, i64 4, i1 false)
  call void @llvm.memcpy.p0.p0.i64(ptr align 4 %23, ptr align 4 %14, i64 4, i1 false)
  call void @llvm.memcpy.p0.p0.i64(ptr align 4 %24, ptr align 4 %11, i64 4, i1 false)
  %53 = load i32, ptr %18, align 4
  %54 = getelementptr inbounds %class.XMMRegister, ptr %22, i32 0, i32 0
  %55 = load i32, ptr %54, align 4
  %56 = getelementptr inbounds %class.XMMRegister, ptr %23, i32 0, i32 0
  %57 = load i32, ptr %56, align 4
  %58 = getelementptr inbounds %class.XMMRegister, ptr %24, i32 0, i32 0
  %59 = load i32, ptr %58, align 4
  call void @_ZN17C2_MacroAssembler5vpsubE9BasicType11XMMRegisterS1_S1_i(ptr noundef nonnull align 8 dereferenceable(40) %44, i8 noundef zeroext %52, i32 %55, i32 %57, i32 %59, i32 noundef %53)
  call void @llvm.memcpy.p0.p0.i64(ptr align 4 %25, ptr align 4 %14, i64 4, i1 false)
  call void @llvm.memcpy.p0.p0.i64(ptr align 4 %26, ptr align 4 %14, i64 4, i1 false)
  call void @llvm.memcpy.p0.p0.i64(ptr align 4 %27, ptr align 4 %11, i64 4, i1 false)
  %60 = load i32, ptr %18, align 4
  %61 = getelementptr inbounds %class.XMMRegister, ptr %25, i32 0, i32 0
  %62 = load i32, ptr %61, align 4
  %63 = getelementptr inbounds %class.XMMRegister, ptr %26, i32 0, i32 0
  %64 = load i32, ptr %63, align 4
  %65 = getelementptr inbounds %class.XMMRegister, ptr %27, i32 0, i32 0
  %66 = load i32, ptr %65, align 4
  call void @_ZN9Assembler4vporE11XMMRegisterS0_S0_i(ptr noundef nonnull align 8 dereferenceable(40) %44, i32 %62, i32 %64, i32 %66, i32 noundef %60)
  %67 = load i8, ptr %17, align 1
  call void @llvm.memcpy.p0.p0.i64(ptr align 4 %28, ptr align 4 %10, i64 4, i1 false)
  call void @llvm.memcpy.p0.p0.i64(ptr align 4 %29, ptr align 4 %14, i64 4, i1 false)
  call void @llvm.memcpy.p0.p0.i64(ptr align 4 %30, ptr align 4 %12, i64 4, i1 false)
  call void @llvm.memcpy.p0.p0.i64(ptr align 4 %31, ptr align 4 %13, i64 4, i1 false)
  call void @llvm.memcpy.p0.p0.i64(ptr align 4 %32, ptr align 4 %15, i64 4, i1 false)
  %68 = load i32, ptr %18, align 4
  %69 = getelementptr inbounds %class.XMMRegister, ptr %28, i32 0, i32 0
  %70 = load i32, ptr %69, align 4
  %71 = getelementptr inbounds %class.XMMRegister, ptr %29, i32 0, i32 0
  %72 = load i32, ptr %71, align 4
  %73 = getelementptr inbounds %class.XMMRegister, ptr %30, i32 0, i32 0
  %74 = load i32, ptr %73, align 4
  %75 = getelementptr inbounds %class.XMMRegister, ptr %31, i32 0, i32 0
  %76 = load i32, ptr %75, align 4
  %77 = getelementptr inbounds %class.Register, ptr %32, i32 0, i32 0
  %78 = load i32, ptr %77, align 4
  call void @_ZN17C2_MacroAssembler24vector_popcount_integralE9BasicType11XMMRegisterS1_S1_S1_8Registeri(ptr noundef nonnull align 8 dereferenceable(40) %44, i8 noundef zeroext %67, i32 %70, i32 %72, i32 %74, i32 %76, i32 %78, i32 noundef %68)
  %79 = load i8, ptr %17, align 1
  call void @llvm.memcpy.p0.p0.i64(ptr align 4 %33, ptr align 4 %12, i64 4, i1 false)
  %80 = load i8, ptr %17, align 1
  %81 = call noundef i32 @_Z15type2aelembytes9BasicTypeb(i8 noundef zeroext %80, i1 noundef zeroext false)
  %82 = mul nsw i32 8, %81
  call void @llvm.memcpy.p0.p0.i64(ptr align 4 %34, ptr align 4 %15, i64 4, i1 false)
  %83 = load i32, ptr %18, align 4
  %84 = getelementptr inbounds %class.XMMRegister, ptr %33, i32 0, i32 0
  %85 = load i32, ptr %84, align 4
  %86 = getelementptr inbounds %class.Register, ptr %34, i32 0, i32 0
  %87 = load i32, ptr %86, align 4
  call void @_ZN17C2_MacroAssembler10vbroadcastE9BasicType11XMMRegisteri8Registeri(ptr noundef nonnull align 8 dereferenceable(40) %44, i8 noundef zeroext %79, i32 %85, i32 noundef %82, i32 %87, i32 noundef %83)
  %88 = load i8, ptr %17, align 1
  call void @llvm.memcpy.p0.p0.i64(ptr align 4 %35, ptr align 4 %10, i64 4, i1 false)
  call void @llvm.memcpy.p0.p0.i64(ptr align 4 %36, ptr align 4 %12, i64 4, i1 false)
  call void @llvm.memcpy.p0.p0.i64(ptr align 4 %37, ptr align 4 %10, i64 4, i1 false)
  %89 = load i32, ptr %18, align 4
  %90 = getelementptr inbounds %class.XMMRegister, ptr %35, i32 0, i32 0
  %91 = load i32, ptr %90, align 4
  %92 = getelementptr inbounds %class.XMMRegister, ptr %36, i32 0, i32 0
  %93 = load i32, ptr %92, align 4
  %94 = getelementptr inbounds %class.XMMRegister, ptr %37, i32 0, i32 0
  %95 = load i32, ptr %94, align 4
  call void @_ZN17C2_MacroAssembler5vpsubE9BasicType11XMMRegisterS1_S1_i(ptr noundef nonnull align 8 dereferenceable(40) %44, i8 noundef zeroext %88, i32 %91, i32 %93, i32 %95, i32 noundef %89)
  ret void
}