; Function Attrs: mustprogress nounwind uwtable
define hidden void @_ZN17C2_MacroAssembler31vector_count_trailing_zeros_avxE9BasicType11XMMRegisterS1_S1_S1_S1_8Registeri(ptr noundef nonnull align 8 dereferenceable(40) %0, i8 noundef zeroext %1, i32 %2, i32 %3, i32 %4, i32 %5, i32 %6, i32 %7, i32 noundef %8) local_unnamed_addr #0 align 2 {
  %10 = load i32, ptr @UseAVX, align 4
  %11 = icmp sgt i32 %10, 1
  %12 = icmp slt i32 %8, 1
  %or.cond.i = or i1 %12, %11
  br i1 %or.cond.i, label %13, label %14

13:                                               ; preds = %9
  tail call void @_ZN9Assembler5vpxorE11XMMRegisterS0_S0_i(ptr noundef nonnull align 8 dereferenceable(40) %0, i32 %6, i32 %6, i32 %6, i32 noundef %8) #11
  br label %_ZN14MacroAssembler5vpxorE11XMMRegisterS0_S0_i.exit

14:                                               ; preds = %9
  tail call void @_ZN9Assembler6vxorpdE11XMMRegisterS0_S0_i(ptr noundef nonnull align 8 dereferenceable(40) %0, i32 %6, i32 %6, i32 %6, i32 noundef %8) #11
  br label %_ZN14MacroAssembler5vpxorE11XMMRegisterS0_S0_i.exit

_ZN14MacroAssembler5vpxorE11XMMRegisterS0_S0_i.exit: ; preds = %13, %14
  tail call void @_ZN17C2_MacroAssembler5vpsubE9BasicType11XMMRegisterS1_S1_i(ptr noundef nonnull align 8 dereferenceable(40) %0, i8 noundef zeroext %1, i32 %6, i32 %6, i32 %3, i32 noundef %8)
  tail call void @_ZN9Assembler4vporE11XMMRegisterS0_S0_i(ptr noundef nonnull align 8 dereferenceable(40) %0, i32 %6, i32 %6, i32 %3, i32 noundef %8) #11
  tail call void @_ZN17C2_MacroAssembler24vector_popcount_integralE9BasicType11XMMRegisterS1_S1_S1_8Registeri(ptr noundef nonnull align 8 dereferenceable(40) %0, i8 noundef zeroext %1, i32 %2, i32 %6, i32 %4, i32 %5, i32 %7, i32 noundef %8)
  %15 = zext i8 %1 to i64
  %16 = getelementptr inbounds [20 x i32], ptr @_type2aelembytes, i64 0, i64 %15
  %17 = load i32, ptr %16, align 4
  %18 = shl nsw i32 %17, 3
  tail call void @_ZN17C2_MacroAssembler10vbroadcastE9BasicType11XMMRegisteri8Registeri(ptr noundef nonnull align 8 dereferenceable(40) %0, i8 noundef zeroext %1, i32 %4, i32 noundef %18, i32 %7, i32 noundef %8)
  tail call void @_ZN17C2_MacroAssembler5vpsubE9BasicType11XMMRegisterS1_S1_i(ptr noundef nonnull align 8 dereferenceable(40) %0, i8 noundef zeroext %1, i32 %2, i32 %4, i32 %2, i32 noundef %8)
  ret void
}